target datalayout = "e-m:e-p270:32:32-p271:32:32-p272:64:64-i64:64-i128:128-f80:128-n8:16:32:64-S128"
target triple = "x86_64-pc-linux-gnu"

@.str.23 = private unnamed_addr constant [17 x i8] c"0123456789ABCDEF\00", align 1
@.str.24 = private unnamed_addr constant [9 x i8] c".history\00", align 1

; Function Attrs: inlinehint nounwind uwtable
define internal ptr @DatumGetPointer(i64 noundef %0) #4 {
  %2 = alloca i64, align 8
  store i64 %0, ptr %2, align 8
  %3 = load i64, ptr %2, align 8
  %4 = inttoptr i64 %3 to ptr
  ret ptr %4
}

; Function Attrs: inlinehint nounwind uwtable
define internal zeroext i1 @IsTLHistoryFileName(ptr noundef %0) #4 {
  %2 = alloca ptr, align 8
  store ptr %0, ptr %2, align 8
  %3 = load ptr, ptr %2, align 8
  %4 = call i64 @strlen(ptr noundef %3) #16
  %5 = icmp eq i64 %4, 16
  br i1 %5, label %6, label %15

6:                                                ; preds = %1
  %7 = load ptr, ptr %2, align 8
  %8 = call i64 @strspn(ptr noundef %7, ptr noundef @.str.23) #16
  %9 = icmp eq i64 %8, 8
  br i1 %9, label %10, label %15

10:                                               ; preds = %6
  %11 = load ptr, ptr %2, align 8
  %12 = getelementptr inbounds i8, ptr %11, i64 8
  %13 = call i32 @strcmp(ptr noundef %12, ptr noundef @.str.24) #16
  %14 = icmp eq i32 %13, 0
  br label %15

15:                                               ; preds = %10, %6, %1
  %16 = phi i1 [ false, %6 ], [ false, %1 ], [ %14, %10 ]
  ret i1 %16
}

; Function Attrs: inlinehint nounwind uwtable
define internal ptr @DatumGetCString(i64 noundef %0) #4 {
  %2 = alloca i64, align 8
  store i64 %0, ptr %2, align 8
  %3 = load i64, ptr %2, align 8
  %4 = call ptr @DatumGetPointer(i64 noundef %3)
  ret ptr %4
}

; Function Attrs: nounwind uwtable
define internal i32 @ready_file_comparator(i64 noundef %0, i64 noundef %1, ptr noundef %2) #0 {
  %4 = alloca i32, align 4
  %5 = alloca i64, align 8
  %6 = alloca i64, align 8
  %7 = alloca ptr, align 8
  %8 = alloca ptr, align 8
  %9 = alloca ptr, align 8
  %10 = alloca i8, align 1
  %11 = alloca i8, align 1
  %12 = alloca i32, align 4
  store i64 %0, ptr %5, align 8
  store i64 %1, ptr %6, align 8
  store ptr %2, ptr %7, align 8
  call void @llvm.lifetime.start.p0(i64 8, ptr %8) #14
  %13 = load i64, ptr %5, align 8
  %14 = call ptr @DatumGetCString(i64 noundef %13)
  store ptr %14, ptr %8, align 8
  call void @llvm.lifetime.start.p0(i64 8, ptr %9) #14
  %15 = load i64, ptr %6, align 8
  %16 = call ptr @DatumGetCString(i64 noundef %15)
  store ptr %16, ptr %9, align 8
  call void @llvm.lifetime.start.p0(i64 1, ptr %10) #14
  %17 = load ptr, ptr %8, align 8
  %18 = call zeroext i1 @IsTLHistoryFileName(ptr noundef %17)
  %19 = zext i1 %18 to i8
  store i8 %19, ptr %10, align 1
  call void @llvm.lifetime.start.p0(i64 1, ptr %11) #14
  %20 = load ptr, ptr %9, align 8
  %21 = call zeroext i1 @IsTLHistoryFileName(ptr noundef %20)
  %22 = zext i1 %21 to i8
  store i8 %22, ptr %11, align 1
  %23 = load i8, ptr %10, align 1, !range !4, !noundef !5
  %24 = trunc i8 %23 to i1
  %25 = zext i1 %24 to i32
  %26 = load i8, ptr %11, align 1, !range !4, !noundef !5
  %27 = trunc i8 %26 to i1
  %28 = zext i1 %27 to i32
  %29 = icmp ne i32 %25, %28
  br i1 %29, label %30, label %34

30:                                               ; preds = %3
  %31 = load i8, ptr %10, align 1, !range !4, !noundef !5
  %32 = trunc i8 %31 to i1
  %33 = select i1 %32, i32 -1, i32 1
  store i32 %33, ptr %4, align 4
  store i32 1, ptr %12, align 4
  br label %38

34:                                               ; preds = %3
  %35 = load ptr, ptr %8, align 8
  %36 = load ptr, ptr %9, align 8
  %37 = call i32 @strcmp(ptr noundef %35, ptr noundef %36) #16
  store i32 %37, ptr %4, align 4
  store i32 1, ptr %12, align 4
  br label %38

38:                                               ; preds = %34, %30
  call void @llvm.lifetime.end.p0(i64 1, ptr %11) #14
  call void @llvm.lifetime.end.p0(i64 1, ptr %10) #14
  call void @llvm.lifetime.end.p0(i64 8, ptr %9) #14
  call void @llvm.lifetime.end.p0(i64 8, ptr %8) #14
  %39 = load i32, ptr %4, align 4
  ret i32 %39
}